target datalayout = "e-m:e-p270:32:32-p271:32:32-p272:64:64-i64:64-i128:128-f80:128-n8:16:32:64-S128"
target triple = "x86_64-pc-linux-gnu"

%struct.Vec_Int_t_ = type { i32, i32, ptr }

; Function Attrs: inlinehint nounwind uwtable
define internal void @Vec_IntClear(ptr noundef %0) #1 {
  %2 = alloca ptr, align 8
  store ptr %0, ptr %2, align 8, !tbaa !47
  %3 = load ptr, ptr %2, align 8, !tbaa !47
  %4 = getelementptr inbounds nuw %struct.Vec_Int_t_, ptr %3, i32 0, i32 1
  store i32 0, ptr %4, align 4, !tbaa !48
  ret void
}

; Function Attrs: nounwind uwtable
define void @If_DsdManCollect(ptr noundef %0, i32 noundef %1, ptr noundef %2, ptr noundef %3) #0 {
  %5 = alloca ptr, align 8
  %6 = alloca i32, align 4
  %7 = alloca ptr, align 8
  %8 = alloca ptr, align 8
  %9 = alloca i32, align 4
  store ptr %0, ptr %5, align 8, !tbaa !3
  store i32 %1, ptr %6, align 4, !tbaa !27
  store ptr %2, ptr %7, align 8, !tbaa !47
  store ptr %3, ptr %8, align 8, !tbaa !47
  call void @llvm.lifetime.start.p0(i64 4, ptr %9) #15
  store i32 0, ptr %9, align 4, !tbaa !27
  %10 = load ptr, ptr %7, align 8, !tbaa !47
  call void @Vec_IntClear(ptr noundef %10)
  %11 = load ptr, ptr %8, align 8, !tbaa !47
  call void @Vec_IntClear(ptr noundef %11)
  %12 = load ptr, ptr %5, align 8, !tbaa !3
  %13 = load i32, ptr %6, align 4, !tbaa !27
  %14 = load ptr, ptr %7, align 8, !tbaa !47
  %15 = load ptr, ptr %8, align 8, !tbaa !47
  call void @If_DsdManCollect_rec(ptr noundef %12, i32 noundef %13, ptr noundef %14, ptr noundef %15, ptr noundef %9)
  call void @llvm.lifetime.end.p0(i64 4, ptr %9) #15
  ret void
}