; Function Attrs: nounwind uwtable
define void @If_DsdManCollect(ptr noundef readonly captures(none) %0, i32 noundef %1, ptr noundef captures(none) initializes((4, 8)) %2, ptr noundef captures(none) initializes((4, 8)) %3) local_unnamed_addr #4 {
  %5 = alloca i32, align 4
  call void @llvm.lifetime.start.p0(i64 4, ptr nonnull %5) #39
  store i32 0, ptr %5, align 4, !tbaa !40
  %6 = getelementptr inbounds nuw i8, ptr %2, i64 4
  store i32 0, ptr %6, align 4, !tbaa !37
  %7 = getelementptr inbounds nuw i8, ptr %3, i64 4
  store i32 0, ptr %7, align 4, !tbaa !37
  call void @If_DsdManCollect_rec(ptr noundef %0, i32 noundef %1, ptr noundef %2, ptr noundef %3, ptr noundef nonnull %5)
  call void @llvm.lifetime.end.p0(i64 4, ptr nonnull %5) #39
  ret void
}